target datalayout = "e-m:e-p270:32:32-p271:32:32-p272:64:64-i64:64-i128:128-f80:128-n8:16:32:64-S128"
target triple = "x86_64-pc-linux-gnu"

%struct.location = type { i32, i32 }
%struct.block = type { ptr, ptr }
%struct.inst = type { ptr, ptr, i32, %struct.anon, ptr, %struct.location, ptr, ptr, i32, i32, i32, i32, %struct.block, %struct.block, ptr, i32 }
%struct.anon = type { i16, ptr, %struct.jv, ptr }
%struct.jv = type { i8, i8, i16, i32, %union.anon }
%union.anon = type { ptr }
%struct.opcode_description = type { i32, ptr, i32, i32, i32, i32 }

; Function Attrs: nounwind uwtable
define dso_local i32 @block_has_only_binders_and_imports(ptr %0, ptr %1, i32 noundef %2) #0 {
  %4 = alloca i32, align 4
  %5 = alloca %struct.block, align 8
  %6 = alloca i32, align 4
  %7 = alloca ptr, align 8
  %8 = alloca i32, align 4
  %9 = getelementptr inbounds nuw { ptr, ptr }, ptr %5, i32 0, i32 0
  store ptr %0, ptr %9, align 8
  %10 = getelementptr inbounds nuw { ptr, ptr }, ptr %5, i32 0, i32 1
  store ptr %1, ptr %10, align 8
  store i32 %2, ptr %6, align 4, !tbaa !26
  %11 = load i32, ptr %6, align 4, !tbaa !26
  %12 = or i32 %11, 1024
  store i32 %12, ptr %6, align 4, !tbaa !26
  call void @llvm.lifetime.start.p0(i64 8, ptr %7) #7
  %13 = getelementptr inbounds nuw %struct.block, ptr %5, i32 0, i32 0
  %14 = load ptr, ptr %13, align 8, !tbaa !4
  store ptr %14, ptr %7, align 8, !tbaa !13
  br label %15

15:                                               ; preds = %42, %3
  %16 = load ptr, ptr %7, align 8, !tbaa !13
  %17 = icmp ne ptr %16, null
  br i1 %17, label %19, label %18

18:                                               ; preds = %15
  store i32 2, ptr %8, align 4
  br label %46

19:                                               ; preds = %15
  %20 = load ptr, ptr %7, align 8, !tbaa !13
  %21 = getelementptr inbounds nuw %struct.inst, ptr %20, i32 0, i32 2
  %22 = load i32, ptr %21, align 8, !tbaa !33
  %23 = call ptr @opcode_describe(i32 noundef %22)
  %24 = getelementptr inbounds nuw %struct.opcode_description, ptr %23, i32 0, i32 2
  %25 = load i32, ptr %24, align 8, !tbaa !48
  %26 = load i32, ptr %6, align 4, !tbaa !26
  %27 = and i32 %25, %26
  %28 = load i32, ptr %6, align 4, !tbaa !26
  %29 = icmp ne i32 %27, %28
  br i1 %29, label %30, label %41

30:                                               ; preds = %19
  %31 = load ptr, ptr %7, align 8, !tbaa !13
  %32 = getelementptr inbounds nuw %struct.inst, ptr %31, i32 0, i32 2
  %33 = load i32, ptr %32, align 8, !tbaa !33
  %34 = icmp ne i32 %33, 37
  br i1 %34, label %35, label %41

35:                                               ; preds = %30
  %36 = load ptr, ptr %7, align 8, !tbaa !13
  %37 = getelementptr inbounds nuw %struct.inst, ptr %36, i32 0, i32 2
  %38 = load i32, ptr %37, align 8, !tbaa !33
  %39 = icmp ne i32 %38, 38
  br i1 %39, label %40, label %41

40:                                               ; preds = %35
  store i32 0, ptr %4, align 4
  store i32 1, ptr %8, align 4
  br label %46

41:                                               ; preds = %35, %30, %19
  br label %42

42:                                               ; preds = %41
  %43 = load ptr, ptr %7, align 8, !tbaa !13
  %44 = getelementptr inbounds nuw %struct.inst, ptr %43, i32 0, i32 0
  %45 = load ptr, ptr %44, align 8, !tbaa !28
  store ptr %45, ptr %7, align 8, !tbaa !13
  br label %15, !llvm.loop !50

46:                                               ; preds = %40, %18
  call void @llvm.lifetime.end.p0(i64 8, ptr %7) #7
  %47 = load i32, ptr %8, align 4
  switch i32 %47, label %51 [
    i32 2, label %48
    i32 1, label %49
  ]

48:                                               ; preds = %46
  store i32 1, ptr %4, align 4
  br label %49

49:                                               ; preds = %48, %46
  %50 = load i32, ptr %4, align 4
  ret i32 %50

51:                                               ; preds = %46
  unreachable
}