; Function Attrs: nounwind uwtable
define dso_local range(i32 0, 2) i32 @block_has_only_binders_and_imports(ptr readonly captures(address_is_null) %0, ptr readnone captures(none) %1, i32 noundef %2) local_unnamed_addr #1 {
  %4 = or i32 %2, 1024
  %.not16 = icmp eq ptr %0, null
  br i1 %.not16, label %._crit_edge, label %.lr.ph

.lr.ph:                                           ; preds = %3, %13
  %.0917 = phi ptr [ %14, %13 ], [ %0, %3 ]
  %5 = getelementptr inbounds nuw i8, ptr %.0917, i64 16
  %6 = load i32, ptr %5, align 8, !tbaa !25
  %7 = tail call ptr @opcode_describe(i32 noundef %6) #17
  %8 = getelementptr inbounds nuw i8, ptr %7, i64 16
  %9 = load i32, ptr %8, align 8, !tbaa !38
  %10 = and i32 %9, %4
  %.not12 = icmp eq i32 %10, %4
  br i1 %.not12, label %13, label %11

11:                                               ; preds = %.lr.ph
  %12 = load i32, ptr %5, align 8, !tbaa !25
  %.off = add i32 %12, -37
  %switch15 = icmp ult i32 %.off, 2
  br i1 %switch15, label %13, label %._crit_edge

13:                                               ; preds = %11, %.lr.ph
  %14 = load ptr, ptr %.0917, align 8, !tbaa !22
  %.not = icmp eq ptr %14, null
  br i1 %.not, label %._crit_edge, label %.lr.ph, !llvm.loop !40

._crit_edge:                                      ; preds = %13, %11, %3
  %.not.lcssa = phi i32 [ 1, %3 ], [ 0, %11 ], [ 1, %13 ]
  ret i32 %.not.lcssa
}